; Function Attrs: nofree nounwind uwtable
define noalias noundef ptr @Llb_Nonlin4CreateOrderSimple(ptr noundef readonly captures(none) %0) local_unnamed_addr #3 {
  %2 = getelementptr i8, ptr %0, i64 32
  %.val28 = load ptr, ptr %2, align 8, !tbaa !43
  %3 = getelementptr i8, ptr %.val28, i64 4
  %.val28.val = load i32, ptr %3, align 4, !tbaa !23
  %4 = tail call noalias dereferenceable_or_null(16) ptr @malloc(i64 noundef 16) #19
  %5 = add i32 %.val28.val, -1
  %or.cond.i.i = icmp ult i32 %5, 15
  %spec.store.select.i.i = select i1 %or.cond.i.i, i32 16, i32 %.val28.val
  %6 = getelementptr inbounds nuw i8, ptr %4, i64 4
  store i32 %spec.store.select.i.i, ptr %4, align 8, !tbaa !54
  %.not.i.i = icmp eq i32 %spec.store.select.i.i, 0
  br i1 %.not.i.i, label %Vec_IntAlloc.exit.thread.i, label %Vec_IntAlloc.exit.i

Vec_IntAlloc.exit.thread.i:                       ; preds = %1
  %7 = getelementptr inbounds nuw i8, ptr %4, i64 8
  store ptr null, ptr %7, align 8, !tbaa !27
  store i32 %.val28.val, ptr %6, align 4, !tbaa !55
  br label %Vec_IntStartFull.exit

Vec_IntAlloc.exit.i:                              ; preds = %1
  %8 = sext i32 %spec.store.select.i.i to i64
  %9 = shl nsw i64 %8, 2
  %10 = tail call noalias ptr @malloc(i64 noundef %9) #19
  %11 = getelementptr inbounds nuw i8, ptr %4, i64 8
  store ptr %10, ptr %11, align 8, !tbaa !27
  store i32 %.val28.val, ptr %6, align 4, !tbaa !55
  %.not.i = icmp eq ptr %10, null
  br i1 %.not.i, label %Vec_IntStartFull.exit, label %12

12:                                               ; preds = %Vec_IntAlloc.exit.i
  %13 = sext i32 %.val28.val to i64
  %14 = shl nsw i64 %13, 2
  tail call void @llvm.memset.p0.i64(ptr nonnull align 4 %10, i8 -1, i64 %14, i1 false)
  br label %Vec_IntStartFull.exit

Vec_IntStartFull.exit:                            ; preds = %Vec_IntAlloc.exit.thread.i, %Vec_IntAlloc.exit.i, %12
  %.val30 = phi ptr [ null, %Vec_IntAlloc.exit.thread.i ], [ null, %Vec_IntAlloc.exit.i ], [ %10, %12 ]
  %15 = getelementptr inbounds nuw i8, ptr %0, i64 16
  %16 = load ptr, ptr %15, align 8, !tbaa !22
  %17 = getelementptr i8, ptr %16, i64 4
  %.val31 = load i32, ptr %17, align 4, !tbaa !23
  %18 = icmp sgt i32 %.val31, 0
  br i1 %18, label %.lr.ph, label %.critedge.preheader

.lr.ph:                                           ; preds = %Vec_IntStartFull.exit
  %19 = getelementptr i8, ptr %16, i64 8
  %.val23 = load ptr, ptr %19, align 8, !tbaa !25
  br label %26

.critedge.preheader.loopexit:                     ; preds = %26
  %indvars = trunc i64 %indvars.iv.next to i32
  br label %.critedge.preheader

.critedge.preheader:                              ; preds = %.critedge.preheader.loopexit, %Vec_IntStartFull.exit
  %.0.lcssa = phi i32 [ 0, %Vec_IntStartFull.exit ], [ %indvars, %.critedge.preheader.loopexit ]
  %20 = getelementptr i8, ptr %0, i64 104
  %.val2734 = load i32, ptr %20, align 8, !tbaa !45
  %21 = icmp sgt i32 %.val2734, 0
  br i1 %21, label %.lr.ph37, label %.critedge2

.lr.ph37:                                         ; preds = %.critedge.preheader
  %22 = getelementptr inbounds nuw i8, ptr %0, i64 24
  %23 = load ptr, ptr %22, align 8, !tbaa !33
  %24 = getelementptr i8, ptr %0, i64 112
  %25 = getelementptr i8, ptr %23, i64 8
  %.val22 = load ptr, ptr %25, align 8, !tbaa !25
  %.val26.pre = load i32, ptr %24, align 8, !tbaa !34
  br label %.critedge

26:                                               ; preds = %.lr.ph, %26
  %indvars.iv = phi i64 [ 0, %.lr.ph ], [ %indvars.iv.next, %26 ]
  %indvars38 = trunc i64 %indvars.iv to i32
  %27 = getelementptr inbounds nuw ptr, ptr %.val23, i64 %indvars.iv
  %28 = load ptr, ptr %27, align 8, !tbaa !26
  %29 = getelementptr i8, ptr %28, i64 36
  %.val24 = load i32, ptr %29, align 4, !tbaa !29
  %indvars.iv.next = add nuw nsw i64 %indvars.iv, 1
  %30 = sext i32 %.val24 to i64
  %31 = getelementptr inbounds i32, ptr %.val30, i64 %30
  store i32 %indvars38, ptr %31, align 4, !tbaa !30
  %.val = load i32, ptr %17, align 4, !tbaa !23
  %32 = sext i32 %.val to i64
  %33 = icmp slt i64 %indvars.iv.next, %32
  br i1 %33, label %26, label %.critedge.preheader.loopexit, !llvm.loop !56

.critedge:                                        ; preds = %.lr.ph37, %.critedge
  %.136 = phi i32 [ %.0.lcssa, %.lr.ph37 ], [ %39, %.critedge ]
  %.12135 = phi i32 [ 0, %.lr.ph37 ], [ %42, %.critedge ]
  %34 = add nsw i32 %.val26.pre, %.12135
  %35 = sext i32 %34 to i64
  %36 = getelementptr inbounds ptr, ptr %.val22, i64 %35
  %37 = load ptr, ptr %36, align 8, !tbaa !26
  %38 = getelementptr i8, ptr %37, i64 36
  %.val25 = load i32, ptr %38, align 4, !tbaa !29
  %39 = add nuw nsw i32 %.136, 1
  %40 = sext i32 %.val25 to i64
  %41 = getelementptr inbounds i32, ptr %.val30, i64 %40
  store i32 %.136, ptr %41, align 4, !tbaa !30
  %42 = add nuw nsw i32 %.12135, 1
  %43 = icmp slt i32 %42, %.val2734
  br i1 %43, label %.critedge, label %.critedge2, !llvm.loop !57

.critedge2:                                       ; preds = %.critedge, %.critedge.preheader
  ret ptr %4
}